target datalayout = "e-m:e-p270:32:32-p271:32:32-p272:64:64-i64:64-i128:128-f80:128-n8:16:32:64-S128"
target triple = "x86_64-unknown-linux-gnu"

module asm ".section \22.export_symbol\22,\22a\22 ; __export_symbol_init_uts_ns: ; .asciz \22GPL\22 ; .asciz \22\22 ; .balign 8 ; .quad init_uts_ns ; .previous"

%struct.obs_kernel_param = type { ptr, ptr, i32 }
%struct.anon = type { %struct.elf32_note, [6 x i8], [2 x i8], [1 x i8] }
%struct.elf32_note = type { i32, i32, i32 }
%struct.anon.0 = type { %struct.elf32_note, [6 x i8], i32 }
%struct.user_namespace = type opaque
%struct.proc_ns_operations = type { ptr, ptr, i32, ptr, ptr, ptr, ptr, ptr }
%struct.uts_namespace = type { %struct.new_utsname, ptr, ptr, %struct.ns_common }
%struct.new_utsname = type { [65 x i8], [65 x i8], [65 x i8], [65 x i8], [65 x i8], [65 x i8] }
%struct.ns_common = type { %struct.atomic64_t, ptr, i32, %struct.refcount_struct }
%struct.atomic64_t = type { i64 }
%struct.refcount_struct = type { %struct.atomic_t }
%struct.atomic_t = type { i32 }

@__setup_str_early_hostname = internal constant [9 x i8] c"hostname\00", section ".init.rodata", align 1
@__setup_early_hostname = internal global %struct.obs_kernel_param { ptr @__setup_str_early_hostname, ptr @early_hostname, i32 1 }, section ".init.setup", align 8
@linux_proc_banner = dso_local local_unnamed_addr constant [144 x i8] c"%s version %s (dtcxzyw@dtcxzyw) (Ubuntu clang version 19.0.0 (++20240222031214+307409a8872f-1~exp1~20240222151237.1514), Ubuntu LLD 19.0.0) %s\0A\00", align 16
@_note_40 = internal constant %struct.anon { %struct.elf32_note { i32 6, i32 1, i32 256 }, [6 x i8] c"Linux\00", [2 x i8] undef, [1 x i8] zeroinitializer }, section ".note.Linux", align 4
@_note_41 = internal constant %struct.anon.0 { %struct.elf32_note { i32 6, i32 4, i32 257 }, [6 x i8] c"Linux\00", i32 0 }, section ".note.Linux", align 4
@init_user_ns = external dso_local global %struct.user_namespace, align 1
@utsns_operations = external dso_local constant %struct.proc_ns_operations, align 8
@init_uts_ns = weak dso_local global %struct.uts_namespace { %struct.new_utsname { [65 x i8] c"Linux\00\00\00\00\00\00\00\00\00\00\00\00\00\00\00\00\00\00\00\00\00\00\00\00\00\00\00\00\00\00\00\00\00\00\00\00\00\00\00\00\00\00\00\00\00\00\00\00\00\00\00\00\00\00\00\00\00\00\00\00", [65 x i8] c"(none)\00\00\00\00\00\00\00\00\00\00\00\00\00\00\00\00\00\00\00\00\00\00\00\00\00\00\00\00\00\00\00\00\00\00\00\00\00\00\00\00\00\00\00\00\00\00\00\00\00\00\00\00\00\00\00\00\00\00\00", [65 x i8] c"6.8.0-rc6-00120-g87adedeba51a-dirty\00\00\00\00\00\00\00\00\00\00\00\00\00\00\00\00\00\00\00\00\00\00\00\00\00\00\00\00\00\00", [65 x i8] c"# SMP PREEMPT_DYNAMIC \00\00\00\00\00\00\00\00\00\00\00\00\00\00\00\00\00\00\00\00\00\00\00\00\00\00\00\00\00\00\00\00\00\00\00\00\00\00\00\00\00\00\00", [65 x i8] c"x86_64\00\00\00\00\00\00\00\00\00\00\00\00\00\00\00\00\00\00\00\00\00\00\00\00\00\00\00\00\00\00\00\00\00\00\00\00\00\00\00\00\00\00\00\00\00\00\00\00\00\00\00\00\00\00\00\00\00\00\00", [65 x i8] c"(none)\00\00\00\00\00\00\00\00\00\00\00\00\00\00\00\00\00\00\00\00\00\00\00\00\00\00\00\00\00\00\00\00\00\00\00\00\00\00\00\00\00\00\00\00\00\00\00\00\00\00\00\00\00\00\00\00\00\00\00" }, ptr @init_user_ns, ptr null, %struct.ns_common { %struct.atomic64_t zeroinitializer, ptr @utsns_operations, i32 -268435458, %struct.refcount_struct { %struct.atomic_t { i32 2 } } } }, align 8
@linux_banner = weak dso_local local_unnamed_addr constant [200 x i8] c"Linux version 6.8.0-rc6-00120-g87adedeba51a-dirty (dtcxzyw@dtcxzyw) (Ubuntu clang version 19.0.0 (++20240222031214+307409a8872f-1~exp1~20240222151237.1514), Ubuntu LLD 19.0.0) # SMP PREEMPT_DYNAMIC \0A\00", align 16
@__UNIQUE_ID___addressable_init_uts_ns70 = internal global ptr @init_uts_ns, section ".discard.addressable", align 8
@.str = private unnamed_addr constant [66 x i8] c"\014hostname parameter exceeds %zd characters and will be truncated\00", align 1
@llvm.compiler.used = appending global [4 x ptr] [ptr @__UNIQUE_ID___addressable_init_uts_ns70, ptr @__setup_early_hostname, ptr @_note_40, ptr @_note_41], section "llvm.metadata"

; Function Attrs: cold fn_ret_thunk_extern nounwind null_pointer_is_valid optsize
define internal noundef i32 @early_hostname(ptr noundef %0) #0 section ".init.text" align 16 {
  %2 = tail call i64 @strscpy(ptr noundef nonnull getelementptr inbounds (%struct.uts_namespace, ptr @init_uts_ns, i64 0, i32 0, i32 1), ptr noundef %0, i64 noundef 65) #3
  %3 = icmp slt i64 %2, 0
  br i1 %3, label %4, label %6

4:                                                ; preds = %1
  %5 = tail call i32 (ptr, ...) @_printk(ptr noundef nonnull @.str, i64 noundef 64) #4
  br label %6

6:                                                ; preds = %4, %1
  ret i32 0
}

; Function Attrs: null_pointer_is_valid
declare dso_local i64 @strscpy(ptr noundef, ptr noundef, i64 noundef) local_unnamed_addr #1

; Function Attrs: cold null_pointer_is_valid
declare dso_local i32 @_printk(ptr noundef, ...) local_unnamed_addr #2


!llvm.module.flags = !{!0, !1, !2, !3, !4}

!0 = !{i32 1, !"wchar_size", i32 2}
!1 = !{i32 8, !"cf-protection-branch", i32 1}
!2 = !{i32 4, !"function_return_thunk_extern", i32 1}
!3 = !{i32 4, !"indirect_branch_cs_prefix", i32 1}
!4 = !{i32 4, !"SkipRaxSetup", i32 1}
